target datalayout = "e-m:e-p270:32:32-p271:32:32-p272:64:64-i64:64-i128:128-f80:128-n8:16:32:64-S128"
target triple = "x86_64-pc-linux-gnu"

%struct.__sigset_t = type { [16 x i64] }
%class.Thread = type { %class.ThreadShadow.base, i64, [43 x i64], ptr, ptr, i32, ptr, i64, i64, %class.ThreadLocalAllocBuffer, i64, %class.ThreadHeapSampler, %class.ThreadStatisticalInfo, %class.JfrThreadLocal, ptr, ptr, ptr, ptr, ptr, ptr, i64, i32, i32, ptr, i32, i32, i32, i32, i8, ptr }
%class.ThreadShadow.base = type <{ ptr, ptr, ptr, i32 }>
%class.ThreadLocalAllocBuffer = type <{ ptr, ptr, ptr, ptr, ptr, i64, i64, i64, i64, i32, i32, i32, i32, i64, %class.AdaptiveWeightedAverage, [4 x i8] }>
%class.AdaptiveWeightedAverage = type { float, i32, i32, i8, float }
%class.ThreadHeapSampler = type { i64 }
%class.ThreadStatisticalInfo = type { i64, i64 }
%class.JfrThreadLocal = type <{ ptr, ptr, ptr, ptr, ptr, ptr, ptr, ptr, ptr, ptr, %class.RefCountHandle, i64, i64, i64, i64, i64, i64, i64, i64, i64, i64, i64, i32, i32, i32, i16, i8, i8, i8, i8, i8, [5 x i8] }>
%class.RefCountHandle = type { ptr }
%class.OSThread = type <{ i32, i32, i64, %struct.__sigset_t, %class.SuspendResume, [4 x i8], ptr, ptr, i32, [4 x i8], ptr, ptr, i32, [4 x i8] }>
%class.SuspendResume = type { i32 }

@_ZN2os19java_to_os_priorityE = hidden global [12 x i32] [i32 19, i32 4, i32 3, i32 2, i32 1, i32 0, i32 -1, i32 -2, i32 -3, i32 -4, i32 -5, i32 -5], align 16
@UseThreadPriorities = external global i8, align 1
@ThreadPriorityPolicy = external global i32, align 4

; Function Attrs: mustprogress nounwind uwtable
define linkonce_odr hidden noundef i32 @_ZNK8OSThread9thread_idEv(ptr noundef nonnull align 8 dereferenceable(196) %0) #1 comdat align 2 {
  %2 = alloca ptr, align 8
  store ptr %0, ptr %2, align 8
  %3 = load ptr, ptr %2, align 8
  %4 = getelementptr inbounds %class.OSThread, ptr %3, i32 0, i32 12
  %5 = load i32, ptr %4, align 8
  ret i32 %5
}

; Function Attrs: mustprogress nounwind uwtable
define linkonce_odr hidden noundef ptr @_ZNK6Thread8osthreadEv(ptr noundef nonnull align 8 dereferenceable(888) %0) #1 comdat align 2 {
  %2 = alloca ptr, align 8
  store ptr %0, ptr %2, align 8
  %3 = load ptr, ptr %2, align 8
  %4 = getelementptr inbounds %class.Thread, ptr %3, i32 0, i32 15
  %5 = load ptr, ptr %4, align 8
  ret ptr %5
}

; Function Attrs: mustprogress nounwind uwtable
define hidden noundef i32 @_ZN2os19get_native_priorityEPK6ThreadPi(ptr noundef %0, ptr noundef %1) #1 align 2 {
  %3 = alloca i32, align 4
  %4 = alloca ptr, align 8
  %5 = alloca ptr, align 8
  store ptr %0, ptr %4, align 8
  store ptr %1, ptr %5, align 8
  %6 = load i8, ptr @UseThreadPriorities, align 1
  %7 = trunc i8 %6 to i1
  br i1 %7, label %8, label %11

8:                                                ; preds = %2
  %9 = load i32, ptr @ThreadPriorityPolicy, align 4
  %10 = icmp eq i32 %9, 0
  br i1 %10, label %11, label %14

11:                                               ; preds = %8, %2
  %12 = load i32, ptr getelementptr inbounds ([12 x i32], ptr @_ZN2os19java_to_os_priorityE, i64 0, i64 5), align 4
  %13 = load ptr, ptr %5, align 8
  store i32 %12, ptr %13, align 4
  store i32 0, ptr %3, align 4
  br label %31

14:                                               ; preds = %8
  %15 = call ptr @__errno_location() #14
  store i32 0, ptr %15, align 4
  %16 = load ptr, ptr %4, align 8
  %17 = call noundef ptr @_ZNK6Thread8osthreadEv(ptr noundef nonnull align 8 dereferenceable(888) %16)
  %18 = call noundef i32 @_ZNK8OSThread9thread_idEv(ptr noundef nonnull align 8 dereferenceable(196) %17)
  %19 = call i32 @getpriority(i32 noundef 0, i32 noundef %18) #12
  %20 = load ptr, ptr %5, align 8
  store i32 %19, ptr %20, align 4
  %21 = load ptr, ptr %5, align 8
  %22 = load i32, ptr %21, align 4
  %23 = icmp ne i32 %22, -1
  br i1 %23, label %28, label %24

24:                                               ; preds = %14
  %25 = call ptr @__errno_location() #14
  %26 = load i32, ptr %25, align 4
  %27 = icmp eq i32 %26, 0
  br label %28

28:                                               ; preds = %24, %14
  %29 = phi i1 [ true, %14 ], [ %27, %24 ]
  %30 = select i1 %29, i32 0, i32 -1
  store i32 %30, ptr %3, align 4
  br label %31

31:                                               ; preds = %28, %11
  %32 = load i32, ptr %3, align 4
  ret i32 %32
}