; Function Attrs: mustprogress nounwind uwtable
define hidden noundef range(i32 -1, 1) i32 @_ZN2os19get_native_priorityEPK6ThreadPi(ptr nocapture noundef readonly %0, ptr nocapture noundef writeonly %1) local_unnamed_addr #0 align 2 {
  %3 = load i8, ptr @UseThreadPriorities, align 1
  %4 = trunc i8 %3 to i1
  %5 = load i32, ptr @ThreadPriorityPolicy, align 4
  %6 = icmp ne i32 %5, 0
  %or.cond.not = select i1 %4, i1 %6, i1 false
  br i1 %or.cond.not, label %9, label %7

7:                                                ; preds = %2
  %8 = load i32, ptr getelementptr inbounds (i8, ptr @_ZN2os19java_to_os_priorityE, i64 20), align 4
  store i32 %8, ptr %1, align 4
  br label %20

9:                                                ; preds = %2
  %10 = tail call ptr @__errno_location() #28
  store i32 0, ptr %10, align 4
  %11 = getelementptr inbounds i8, ptr %0, i64 792
  %12 = load ptr, ptr %11, align 8
  %13 = getelementptr inbounds i8, ptr %12, i64 192
  %14 = load i32, ptr %13, align 8
  %15 = tail call i32 @getpriority(i32 noundef 0, i32 noundef %14) #26
  store i32 %15, ptr %1, align 4
  %.not = icmp eq i32 %15, -1
  br i1 %.not, label %16, label %20

16:                                               ; preds = %9
  %17 = load i32, ptr %10, align 4
  %18 = icmp ne i32 %17, 0
  %19 = sext i1 %18 to i32
  br label %20

20:                                               ; preds = %9, %16, %7
  %.0 = phi i32 [ 0, %7 ], [ 0, %9 ], [ %19, %16 ]
  ret i32 %.0
}